target datalayout = "e-m:e-p270:32:32-p271:32:32-p272:64:64-i64:64-i128:128-f80:128-n8:16:32:64-S128"
target triple = "x86_64-pc-linux-gnu"

; Function Attrs: nounwind uwtable
define hidden void @av1_inv_txfm2d_add_64x32_c(ptr noundef %0, ptr noundef %1, i32 noundef %2, i8 noundef zeroext %3, i32 noundef %4) #0 {
  %6 = alloca ptr, align 8
  %7 = alloca ptr, align 8
  %8 = alloca i32, align 4
  %9 = alloca i8, align 1
  %10 = alloca i32, align 4
  %11 = alloca [2048 x i32], align 16
  %12 = alloca i32, align 4
  %13 = alloca [2176 x i32], align 32
  store ptr %0, ptr %6, align 8
  store ptr %1, ptr %7, align 8
  store i32 %2, ptr %8, align 4
  store i8 %3, ptr %9, align 1
  store i32 %4, ptr %10, align 4
  store i32 0, ptr %12, align 4
  br label %14

14:                                               ; preds = %34, %5
  %15 = load i32, ptr %12, align 4
  %16 = icmp slt i32 %15, 32
  br i1 %16, label %17, label %37

17:                                               ; preds = %14
  %18 = getelementptr inbounds [2048 x i32], ptr %11, i64 0, i64 0
  %19 = load i32, ptr %12, align 4
  %20 = mul nsw i32 %19, 64
  %21 = sext i32 %20 to i64
  %22 = getelementptr inbounds i32, ptr %18, i64 %21
  %23 = load ptr, ptr %6, align 8
  %24 = load i32, ptr %12, align 4
  %25 = mul nsw i32 %24, 32
  %26 = sext i32 %25 to i64
  %27 = getelementptr inbounds i32, ptr %23, i64 %26
  call void @llvm.memcpy.p0.p0.i64(ptr align 4 %22, ptr align 4 %27, i64 128, i1 false)
  %28 = getelementptr inbounds [2048 x i32], ptr %11, i64 0, i64 0
  %29 = load i32, ptr %12, align 4
  %30 = mul nsw i32 %29, 64
  %31 = sext i32 %30 to i64
  %32 = getelementptr inbounds i32, ptr %28, i64 %31
  %33 = getelementptr inbounds i32, ptr %32, i64 32
  call void @llvm.memset.p0.i64(ptr align 4 %33, i8 0, i64 128, i1 false)
  br label %34

34:                                               ; preds = %17
  %35 = load i32, ptr %12, align 4
  %36 = add nsw i32 %35, 1
  store i32 %36, ptr %12, align 4
  br label %14, !llvm.loop !11

37:                                               ; preds = %14
  %38 = getelementptr inbounds [2048 x i32], ptr %11, i64 0, i64 0
  %39 = load ptr, ptr %7, align 8
  %40 = load i32, ptr %8, align 4
  %41 = getelementptr inbounds [2176 x i32], ptr %13, i64 0, i64 0
  %42 = load i8, ptr %9, align 1
  %43 = load i32, ptr %10, align 4
  call void @inv_txfm2d_add_facade(ptr noundef %38, ptr noundef %39, i32 noundef %40, ptr noundef %41, i8 noundef zeroext %42, i8 noundef zeroext 12, i32 noundef %43)
  ret void
}