; Function Attrs: nounwind uwtable
define hidden void @av1_inv_txfm2d_add_64x32_c(ptr noundef readonly captures(none) %0, ptr noundef captures(none) %1, i32 noundef %2, i8 noundef zeroext %3, i32 noundef %4) local_unnamed_addr #5 {
  %6 = alloca [2048 x i32], align 16
  %7 = alloca [2176 x i32], align 32
  br label %8

8:                                                ; preds = %5, %8
  %indvars.iv = phi i64 [ 0, %5 ], [ %indvars.iv.next, %8 ]
  %.idx = shl nuw nsw i64 %indvars.iv, 8
  %9 = getelementptr inbounds nuw i8, ptr %6, i64 %.idx
  %.idx11 = shl nuw nsw i64 %indvars.iv, 7
  %10 = getelementptr inbounds nuw i8, ptr %0, i64 %.idx11
  call void @llvm.memcpy.p0.p0.i64(ptr noundef nonnull align 16 dereferenceable(128) %9, ptr noundef nonnull align 4 dereferenceable(128) %10, i64 128, i1 false)
  %11 = getelementptr inbounds nuw i8, ptr %9, i64 128
  call void @llvm.memset.p0.i64(ptr noundef nonnull align 16 dereferenceable(128) %11, i8 0, i64 128, i1 false)
  %indvars.iv.next = add nuw nsw i64 %indvars.iv, 1
  %exitcond.not = icmp eq i64 %indvars.iv.next, 32
  br i1 %exitcond.not, label %12, label %8, !llvm.loop !20

12:                                               ; preds = %8
  call fastcc void @inv_txfm2d_add_facade(ptr noundef nonnull %6, ptr noundef %1, i32 noundef %2, ptr noundef %7, i8 noundef zeroext %3, i8 noundef zeroext 12, i32 noundef %4)
  ret void
}